; Function Attrs: nounwind uwtable
define dso_local void @UnregisterSnapshot(ptr noundef %0) local_unnamed_addr #0 {
  %2 = icmp eq ptr %0, null
  br i1 %2, label %5, label %3

3:                                                ; preds = %1
  %4 = load ptr, ptr @CurrentResourceOwner, align 8
  tail call void @UnregisterSnapshotFromOwner(ptr noundef nonnull %0, ptr noundef %4)
  br label %5

5:                                                ; preds = %1, %3
  ret void
}